; Function Attrs: mustprogress uwtable
define noundef nonnull ptr @_ZN5faiss17set_array_invlistEPNS_8IndexIVFERSt6vectorIS2_IlSaIlEESaIS4_EE(ptr noundef captures(none) %0, ptr noundef nonnull align 8 captures(none) dereferenceable(24) %1) local_unnamed_addr #3 personality ptr @__gxx_personality_v0 {
  %3 = tail call noalias noundef nonnull dereferenceable(80) ptr @_Znwm(i64 noundef 80) #32
  %4 = getelementptr inbounds nuw i8, ptr %0, i64 56
  %5 = load i64, ptr %4, align 8, !tbaa !101
  %6 = getelementptr inbounds nuw i8, ptr %0, i64 160
  %7 = load i64, ptr %6, align 8, !tbaa !105
  invoke void @_ZN5faiss18ArrayInvertedListsC1Emm(ptr noundef nonnull align 8 dereferenceable(80) %3, i64 noundef %5, i64 noundef %7)
          to label %8 unwind label %22

8:                                                ; preds = %2
  %9 = getelementptr inbounds nuw i8, ptr %3, i64 56
  %10 = load ptr, ptr %9, align 8, !tbaa !62
  %11 = getelementptr inbounds nuw i8, ptr %3, i64 64
  %12 = load ptr, ptr %11, align 8, !tbaa !59
  %13 = getelementptr inbounds nuw i8, ptr %3, i64 72
  %14 = load ptr, ptr %13, align 8, !tbaa !87
  %15 = load ptr, ptr %1, align 8, !tbaa !62
  store ptr %15, ptr %9, align 8, !tbaa !62
  %16 = getelementptr inbounds nuw i8, ptr %1, i64 8
  %17 = load ptr, ptr %16, align 8, !tbaa !59
  store ptr %17, ptr %11, align 8, !tbaa !59
  %18 = getelementptr inbounds nuw i8, ptr %1, i64 16
  %19 = load ptr, ptr %18, align 8, !tbaa !87
  store ptr %19, ptr %13, align 8, !tbaa !87
  store ptr %10, ptr %1, align 8, !tbaa !62
  store ptr %12, ptr %16, align 8, !tbaa !59
  store ptr %14, ptr %18, align 8, !tbaa !87
  %20 = getelementptr inbounds nuw i8, ptr %0, i64 144
  store ptr %3, ptr %20, align 8, !tbaa !120
  %21 = getelementptr inbounds nuw i8, ptr %0, i64 152
  store i8 1, ptr %21, align 8, !tbaa !121
  ret ptr %3

22:                                               ; preds = %2
  %23 = landingpad { ptr, i32 }
          cleanup
  tail call void @_ZdlPvm(ptr noundef nonnull %3, i64 noundef 80) #30
  resume { ptr, i32 } %23
}